; Function Attrs: nofree norecurse nosync nounwind memory(read, argmem: readwrite, inaccessiblemem: none) uwtable
define internal void @planar_rgbf16be_to_y(ptr noundef writeonly captures(none) %0, ptr noundef readonly captures(none) %1, i32 noundef %2, ptr noundef readonly captures(none) %3, ptr noundef readonly captures(none) %4) #2 {
  %6 = load i32, ptr %3, align 4, !tbaa !42
  %7 = getelementptr inbounds nuw i8, ptr %3, i64 4
  %8 = load i32, ptr %7, align 4, !tbaa !42
  %9 = getelementptr inbounds nuw i8, ptr %3, i64 8
  %10 = load i32, ptr %9, align 4, !tbaa !42
  %11 = icmp sgt i32 %2, 0
  br i1 %11, label %.lr.ph, label %planar_rgbf16_to_y.exit

.lr.ph:                                           ; preds = %5
  %12 = getelementptr inbounds nuw i8, ptr %4, i64 12544
  %13 = getelementptr inbounds nuw i8, ptr %4, i64 12288
  %14 = getelementptr inbounds nuw i8, ptr %1, i64 8
  %15 = getelementptr inbounds nuw i8, ptr %1, i64 16
  %wide.trip.count = zext nneg i32 %2 to i64
  br label %16

16:                                               ; preds = %.lr.ph, %16
  %indvars.iv = phi i64 [ 0, %.lr.ph ], [ %indvars.iv.next, %16 ]
  %17 = load ptr, ptr %1, align 8, !tbaa !51
  %18 = shl nuw nsw i64 %indvars.iv, 1
  %19 = getelementptr inbounds nuw i8, ptr %17, i64 %18
  %20 = load i16, ptr %19, align 1, !tbaa !34
  %21 = tail call i16 @llvm.bswap.i16(i16 %20)
  %22 = zext i16 %21 to i32
  %23 = lshr i32 %22, 10
  %24 = zext nneg i32 %23 to i64
  %25 = getelementptr inbounds nuw [64 x i16], ptr %12, i64 0, i64 %24
  %26 = load i16, ptr %25, align 2, !tbaa !43
  %27 = zext i16 %26 to i32
  %28 = and i32 %22, 1023
  %29 = add nuw nsw i32 %28, %27
  %30 = zext nneg i32 %29 to i64
  %31 = getelementptr inbounds nuw [3072 x i32], ptr %4, i64 0, i64 %30
  %32 = load i32, ptr %31, align 4, !tbaa !42
  %33 = getelementptr inbounds nuw [64 x i32], ptr %13, i64 0, i64 %24
  %34 = load i32, ptr %33, align 4, !tbaa !42
  %35 = add i32 %34, %32
  %36 = bitcast i32 %35 to float
  %37 = fmul nsz float %36, 6.553500e+04
  %38 = fcmp nsz ogt float %37, 0.000000e+00
  %39 = select nsz i1 %38, float %37, float 0.000000e+00
  %40 = fcmp nsz ogt float %39, 6.553500e+04
  %..i34.i = select nsz i1 %40, float 6.553500e+04, float %39
  %41 = tail call i64 @llvm.lrint.i64.f32(float %..i34.i)
  %42 = trunc i64 %41 to i32
  %43 = load ptr, ptr %14, align 8, !tbaa !51
  %44 = getelementptr inbounds nuw i8, ptr %43, i64 %18
  %45 = load i16, ptr %44, align 1, !tbaa !34
  %46 = tail call i16 @llvm.bswap.i16(i16 %45)
  %47 = zext i16 %46 to i32
  %48 = lshr i32 %47, 10
  %49 = zext nneg i32 %48 to i64
  %50 = getelementptr inbounds nuw [64 x i16], ptr %12, i64 0, i64 %49
  %51 = load i16, ptr %50, align 2, !tbaa !43
  %52 = zext i16 %51 to i32
  %53 = and i32 %47, 1023
  %54 = add nuw nsw i32 %53, %52
  %55 = zext nneg i32 %54 to i64
  %56 = getelementptr inbounds nuw [3072 x i32], ptr %4, i64 0, i64 %55
  %57 = load i32, ptr %56, align 4, !tbaa !42
  %58 = getelementptr inbounds nuw [64 x i32], ptr %13, i64 0, i64 %49
  %59 = load i32, ptr %58, align 4, !tbaa !42
  %60 = add i32 %59, %57
  %61 = bitcast i32 %60 to float
  %62 = fmul nsz float %61, 6.553500e+04
  %63 = fcmp nsz ogt float %62, 0.000000e+00
  %64 = select nsz i1 %63, float %62, float 0.000000e+00
  %65 = fcmp nsz ogt float %64, 6.553500e+04
  %..i33.i = select nsz i1 %65, float 6.553500e+04, float %64
  %66 = tail call i64 @llvm.lrint.i64.f32(float %..i33.i)
  %67 = trunc i64 %66 to i32
  %68 = load ptr, ptr %15, align 8, !tbaa !51
  %69 = getelementptr inbounds nuw i8, ptr %68, i64 %18
  %70 = load i16, ptr %69, align 1, !tbaa !34
  %71 = tail call i16 @llvm.bswap.i16(i16 %70)
  %72 = zext i16 %71 to i32
  %73 = lshr i32 %72, 10
  %74 = zext nneg i32 %73 to i64
  %75 = getelementptr inbounds nuw [64 x i16], ptr %12, i64 0, i64 %74
  %76 = load i16, ptr %75, align 2, !tbaa !43
  %77 = zext i16 %76 to i32
  %78 = and i32 %72, 1023
  %79 = add nuw nsw i32 %78, %77
  %80 = zext nneg i32 %79 to i64
  %81 = getelementptr inbounds nuw [3072 x i32], ptr %4, i64 0, i64 %80
  %82 = load i32, ptr %81, align 4, !tbaa !42
  %83 = getelementptr inbounds nuw [64 x i32], ptr %13, i64 0, i64 %74
  %84 = load i32, ptr %83, align 4, !tbaa !42
  %85 = add i32 %84, %82
  %86 = bitcast i32 %85 to float
  %87 = fmul nsz float %86, 6.553500e+04
  %88 = fcmp nsz ogt float %87, 0.000000e+00
  %89 = select nsz i1 %88, float %87, float 0.000000e+00
  %90 = fcmp nsz ogt float %89, 6.553500e+04
  %..i.i = select nsz i1 %90, float 6.553500e+04, float %89
  %91 = tail call i64 @llvm.lrint.i64.f32(float %..i.i)
  %92 = trunc i64 %91 to i32
  %93 = mul nsw i32 %6, %92
  %94 = mul nsw i32 %8, %42
  %95 = mul nsw i32 %10, %67
  %96 = add i32 %94, 134234112
  %97 = add i32 %96, %95
  %98 = add i32 %97, %93
  %99 = lshr i32 %98, 15
  %100 = trunc i32 %99 to i16
  %101 = getelementptr inbounds nuw i8, ptr %0, i64 %18
  store i16 %100, ptr %101, align 1, !tbaa !34
  %indvars.iv.next = add nuw nsw i64 %indvars.iv, 1
  %exitcond.not = icmp eq i64 %indvars.iv.next, %wide.trip.count
  br i1 %exitcond.not, label %planar_rgbf16_to_y.exit, label %16, !llvm.loop !96

planar_rgbf16_to_y.exit:                          ; preds = %16, %5
  ret void
}